; Function Attrs: null_pointer_is_valid sspstrong uwtable
define internal fastcc void @dissect_amqp_0_9_method_queue_delete(ptr noundef %0, ptr noundef readonly captures(none) %1, ptr noundef %2) unnamed_addr #0 {
  %4 = alloca ptr, align 8
  call void @llvm.lifetime.start.p0(i64 8, ptr nonnull %4) #14
  %5 = load i32, ptr @hf_amqp_method_queue_delete_ticket, align 4
  %6 = tail call ptr @proto_tree_add_item(ptr noundef %2, i32 noundef %5, ptr noundef %0, i32 noundef 11, i32 noundef 2, i32 noundef 0)
  %7 = load i32, ptr @hf_amqp_method_queue_delete_queue, align 4
  %8 = tail call zeroext i8 @tvb_get_uint8(ptr noundef %0, i32 noundef 13)
  %9 = zext i8 %8 to i32
  %10 = getelementptr inbounds nuw i8, ptr %1, i64 408
  %11 = load ptr, ptr %10, align 8
  %12 = call ptr @proto_tree_add_item_ret_string(ptr noundef %2, i32 noundef %7, ptr noundef %0, i32 noundef 14, i32 noundef %9, i32 noundef 0, ptr noundef %11, ptr noundef nonnull %4)
  %13 = getelementptr inbounds nuw i8, ptr %1, i64 8
  %14 = load ptr, ptr %13, align 8
  %15 = load ptr, ptr %4, align 8
  call void (ptr, i32, ptr, ...) @col_append_fstr(ptr noundef %14, i32 noundef 25, ptr noundef nonnull @.str.1479, ptr noundef %15)
  %16 = call zeroext i8 @tvb_get_uint8(ptr noundef %0, i32 noundef 13)
  %17 = zext i8 %16 to i32
  %18 = add nuw nsw i32 %17, 14
  %19 = load i32, ptr @hf_amqp_method_queue_delete_if_unused, align 4
  %20 = call ptr @proto_tree_add_item(ptr noundef %2, i32 noundef %19, ptr noundef %0, i32 noundef %18, i32 noundef 1, i32 noundef 0)
  %21 = load i32, ptr @hf_amqp_method_queue_delete_if_empty, align 4
  %22 = call ptr @proto_tree_add_item(ptr noundef %2, i32 noundef %21, ptr noundef %0, i32 noundef %18, i32 noundef 1, i32 noundef 0)
  %23 = load i32, ptr @hf_amqp_method_queue_delete_nowait, align 4
  %24 = call ptr @proto_tree_add_item(ptr noundef %2, i32 noundef %23, ptr noundef %0, i32 noundef %18, i32 noundef 1, i32 noundef 0)
  call void @llvm.lifetime.end.p0(i64 8, ptr nonnull %4) #14
  ret void
}